; Function Attrs: mustprogress uwtable
define void @_ZN4toku8treenode19remove_shared_ownerEm(ptr noundef nonnull align 8 captures(none) dereferenceable(202) %0, i64 noundef %1) local_unnamed_addr #5 align 2 personality ptr @__gxx_personality_v0 {
  %3 = alloca i64, align 8
  store i64 %1, ptr %3, align 8, !tbaa !34
  %4 = getelementptr inbounds nuw i8, ptr %0, i64 152
  %5 = load ptr, ptr %4, align 8, !tbaa !25
  %6 = call noundef i64 @_ZNSt8_Rb_treeImmSt9_IdentityImESt4lessImESaImEE5eraseERKm(ptr noundef nonnull align 8 dereferenceable(48) %5, ptr noundef nonnull align 8 dereferenceable(8) %3)
  %7 = load ptr, ptr %4, align 8, !tbaa !25
  %8 = getelementptr inbounds nuw i8, ptr %7, i64 40
  %9 = load i64, ptr %8, align 8, !tbaa !46
  %10 = icmp eq i64 %9, 1
  br i1 %10, label %11, label %23

11:                                               ; preds = %2
  %12 = getelementptr inbounds nuw i8, ptr %7, i64 24
  %13 = load ptr, ptr %12, align 8, !tbaa !44
  %14 = getelementptr inbounds nuw i8, ptr %13, i64 32
  %15 = load i64, ptr %14, align 8, !tbaa !34
  %16 = getelementptr inbounds nuw i8, ptr %0, i64 136
  store i64 %15, ptr %16, align 8, !tbaa !4
  %17 = getelementptr inbounds nuw i8, ptr %7, i64 16
  %18 = load ptr, ptr %17, align 8, !tbaa !43
  invoke void @_ZNSt8_Rb_treeImmSt9_IdentityImESt4lessImESaImEE8_M_eraseEPSt13_Rb_tree_nodeImE(ptr noundef nonnull align 8 dereferenceable(48) %7, ptr noundef %18)
          to label %22 unwind label %19

19:                                               ; preds = %11
  %20 = landingpad { ptr, i32 }
          catch ptr null
  %21 = extractvalue { ptr, i32 } %20, 0
  call void @__clang_call_terminate(ptr %21) #20
  unreachable

22:                                               ; preds = %11
  call void @_ZdlPvm(ptr noundef nonnull %7, i64 noundef 48) #21
  store ptr null, ptr %4, align 8, !tbaa !25
  br label %23

23:                                               ; preds = %22, %2
  ret void
}